; Function Attrs: mustprogress nofree norecurse nosync nounwind willreturn memory(write, argmem: readwrite, inaccessiblemem: none) uwtable
define dso_local void @_ZN4llvm10VirtRegMap15assignVirt2PhysENS_8RegisterEt(ptr nocapture noundef nonnull readonly align 8 dereferenceable(184) %0, i32 %1, i16 noundef zeroext %2) local_unnamed_addr #1 align 2 {
  %4 = zext i16 %2 to i32
  %5 = getelementptr inbounds nuw i8, ptr %0, i64 88
  %6 = and i32 %1, 2147483647
  %7 = zext nneg i32 %6 to i64
  %8 = load ptr, ptr %5, align 8
  %9 = getelementptr inbounds %"class.llvm::Register", ptr %8, i64 %7
  store i32 %4, ptr %9, align 4
  ret void
}